target datalayout = "e-m:e-p270:32:32-p271:32:32-p272:64:64-i64:64-i128:128-f80:128-n8:16:32:64-S128"
target triple = "x86_64-pc-linux-gnu"

%"class.std::__cxx11::basic_string" = type { %"struct.std::__cxx11::basic_string<char>::_Alloc_hider", i64, %union.anon }
%"struct.std::__cxx11::basic_string<char>::_Alloc_hider" = type { ptr }
%union.anon = type { i64, [8 x i8] }
%"class.std::__shared_count" = type { ptr }
%"struct.cv::obsensor::UvcDeviceInfo" = type <{ %"class.std::__cxx11::basic_string", %"class.std::__cxx11::basic_string", %"class.std::__cxx11::basic_string", i16, i16, i16, [2 x i8] }>
%"class.cv::obsensor::IUvcStreamChannel" = type { %"class.cv::obsensor::IStreamChannel", %"struct.cv::obsensor::UvcDeviceInfo", i32, %"struct.cv::Ptr.25" }
%"class.cv::obsensor::IStreamChannel" = type { ptr }
%"struct.cv::Ptr.25" = type { %"class.std::shared_ptr.26" }
%"class.std::shared_ptr.26" = type { %"class.std::__shared_ptr.27" }
%"class.std::__shared_ptr.27" = type { ptr, %"class.std::__shared_count" }

@_ZN2cv8obsensorL11OB_EXT_CMD8E = internal constant [16 x i8] c"GM\04\00\02\00\FE\13?\00\00\00\01\00\00\00", align 16
@_ZN2cv8obsensorL11OB_EXT_CMD6E = internal constant [16 x i8] c"GM\04\00\02\00|\00*\00\00\00\01\00\00\00", align 16
@_ZN2cv8obsensorL12OB_EXT_CMD12E = internal constant [16 x i8] c"GM\04\00\02\00\FE\13?\00\00\00\02\00\00\00", align 16
@_ZN2cv8obsensorL12OB_EXT_CMD11E = internal constant [16 x i8] c"GM\04\00\02\00\FE\13?\00\00\00\00\00\00\00", align 16
@_ZN2cv8obsensorL11OB_EXT_CMD0E = internal constant [16 x i8] c"GM\04\00\02\00R\00[\00\00\00\01\00\00\00", align 16
@_ZN2cv8obsensorL11OB_EXT_CMD1E = internal constant [16 x i8] c"GM\04\00\02\00T\00?\00\00\00\00\00\00\00", align 16
@_ZN2cv8obsensorL11OB_EXT_CMD2E = internal constant [16 x i8] c"GM\04\00\02\00V\00\0D\00\00\00\01\00\00\00", align 16
@_ZN2cv8obsensorL11OB_EXT_CMD3E = internal constant [16 x i8] c"GM\04\00\02\00X\00*\00\00\00\01\00\00\00", align 16

; Function Attrs: mustprogress uwtable
define hidden noundef zeroext i1 @_ZN2cv8obsensor17IUvcStreamChannel11setPropertyEiPKhj(ptr noundef nonnull align 8 dereferenceable(136) %0, i32 noundef %1, ptr noundef %2, i32 noundef %3) unnamed_addr #7 align 2 {
  %5 = alloca ptr, align 8
  %6 = alloca i32, align 4
  %7 = alloca ptr, align 8
  %8 = alloca i32, align 4
  %9 = alloca ptr, align 8
  %10 = alloca i32, align 4
  %11 = alloca i8, align 1
  store ptr %0, ptr %5, align 8, !tbaa !137
  store i32 %1, ptr %6, align 4, !tbaa !31
  store ptr %2, ptr %7, align 8, !tbaa !30
  store i32 %3, ptr %8, align 4, !tbaa !31
  %12 = load ptr, ptr %5, align 8
  call void @llvm.lifetime.start.p0(i64 8, ptr %9) #3
  call void @llvm.lifetime.start.p0(i64 4, ptr %10) #3
  call void @llvm.lifetime.start.p0(i64 1, ptr %11) #3
  store i8 1, ptr %11, align 1, !tbaa !153
  %13 = load i32, ptr %6, align 4, !tbaa !31
  switch i32 %13, label %311 [
    i32 42, label %14
  ]

14:                                               ; preds = %4
  %15 = getelementptr inbounds nuw %"class.cv::obsensor::IUvcStreamChannel", ptr %12, i32 0, i32 1
  %16 = getelementptr inbounds nuw %"struct.cv::obsensor::UvcDeviceInfo", ptr %15, i32 0, i32 4
  %17 = load i16, ptr %16, align 2, !tbaa !152
  %18 = zext i16 %17 to i32
  %19 = icmp eq i32 1648, %18
  br i1 %19, label %20, label %65

20:                                               ; preds = %14
  %21 = load ptr, ptr %12, align 8, !tbaa !95
  %22 = getelementptr inbounds ptr, ptr %21, i64 8
  %23 = load ptr, ptr %22, align 8
  %24 = call noundef zeroext i1 %23(ptr noundef nonnull align 8 dereferenceable(136) %12, i8 noundef zeroext 2, ptr noundef @_ZN2cv8obsensorL11OB_EXT_CMD8E, i32 noundef 16)
  %25 = zext i1 %24 to i32
  %26 = load i8, ptr %11, align 1, !tbaa !153, !range !155, !noundef !156
  %27 = trunc i8 %26 to i1
  %28 = zext i1 %27 to i32
  %29 = and i32 %28, %25
  %30 = icmp ne i32 %29, 0
  %31 = zext i1 %30 to i8
  store i8 %31, ptr %11, align 1, !tbaa !153
  %32 = load ptr, ptr %12, align 8, !tbaa !95
  %33 = getelementptr inbounds ptr, ptr %32, i64 9
  %34 = load ptr, ptr %33, align 8
  %35 = call noundef zeroext i1 %34(ptr noundef nonnull align 8 dereferenceable(136) %12, i8 noundef zeroext 2, ptr noundef %9, ptr noundef %10)
  %36 = zext i1 %35 to i32
  %37 = load i8, ptr %11, align 1, !tbaa !153, !range !155, !noundef !156
  %38 = trunc i8 %37 to i1
  %39 = zext i1 %38 to i32
  %40 = and i32 %39, %36
  %41 = icmp ne i32 %40, 0
  %42 = zext i1 %41 to i8
  store i8 %42, ptr %11, align 1, !tbaa !153
  %43 = load ptr, ptr %12, align 8, !tbaa !95
  %44 = getelementptr inbounds ptr, ptr %43, i64 8
  %45 = load ptr, ptr %44, align 8
  %46 = call noundef zeroext i1 %45(ptr noundef nonnull align 8 dereferenceable(136) %12, i8 noundef zeroext 2, ptr noundef @_ZN2cv8obsensorL11OB_EXT_CMD6E, i32 noundef 16)
  %47 = zext i1 %46 to i32
  %48 = load i8, ptr %11, align 1, !tbaa !153, !range !155, !noundef !156
  %49 = trunc i8 %48 to i1
  %50 = zext i1 %49 to i32
  %51 = and i32 %50, %47
  %52 = icmp ne i32 %51, 0
  %53 = zext i1 %52 to i8
  store i8 %53, ptr %11, align 1, !tbaa !153
  %54 = load ptr, ptr %12, align 8, !tbaa !95
  %55 = getelementptr inbounds ptr, ptr %54, i64 9
  %56 = load ptr, ptr %55, align 8
  %57 = call noundef zeroext i1 %56(ptr noundef nonnull align 8 dereferenceable(136) %12, i8 noundef zeroext 2, ptr noundef %9, ptr noundef %10)
  %58 = zext i1 %57 to i32
  %59 = load i8, ptr %11, align 1, !tbaa !153, !range !155, !noundef !156
  %60 = trunc i8 %59 to i1
  %61 = zext i1 %60 to i32
  %62 = and i32 %61, %58
  %63 = icmp ne i32 %62, 0
  %64 = zext i1 %63 to i8
  store i8 %64, ptr %11, align 1, !tbaa !153
  br label %310

65:                                               ; preds = %14
  %66 = getelementptr inbounds nuw %"class.cv::obsensor::IUvcStreamChannel", ptr %12, i32 0, i32 1
  %67 = getelementptr inbounds nuw %"struct.cv::obsensor::UvcDeviceInfo", ptr %66, i32 0, i32 4
  %68 = load i16, ptr %67, align 2, !tbaa !152
  %69 = zext i16 %68 to i32
  %70 = icmp eq i32 1632, %69
  br i1 %70, label %71, label %116

71:                                               ; preds = %65
  %72 = load ptr, ptr %12, align 8, !tbaa !95
  %73 = getelementptr inbounds ptr, ptr %72, i64 8
  %74 = load ptr, ptr %73, align 8
  %75 = call noundef zeroext i1 %74(ptr noundef nonnull align 8 dereferenceable(136) %12, i8 noundef zeroext 2, ptr noundef @_ZN2cv8obsensorL12OB_EXT_CMD12E, i32 noundef 16)
  %76 = zext i1 %75 to i32
  %77 = load i8, ptr %11, align 1, !tbaa !153, !range !155, !noundef !156
  %78 = trunc i8 %77 to i1
  %79 = zext i1 %78 to i32
  %80 = and i32 %79, %76
  %81 = icmp ne i32 %80, 0
  %82 = zext i1 %81 to i8
  store i8 %82, ptr %11, align 1, !tbaa !153
  %83 = load ptr, ptr %12, align 8, !tbaa !95
  %84 = getelementptr inbounds ptr, ptr %83, i64 9
  %85 = load ptr, ptr %84, align 8
  %86 = call noundef zeroext i1 %85(ptr noundef nonnull align 8 dereferenceable(136) %12, i8 noundef zeroext 2, ptr noundef %9, ptr noundef %10)
  %87 = zext i1 %86 to i32
  %88 = load i8, ptr %11, align 1, !tbaa !153, !range !155, !noundef !156
  %89 = trunc i8 %88 to i1
  %90 = zext i1 %89 to i32
  %91 = and i32 %90, %87
  %92 = icmp ne i32 %91, 0
  %93 = zext i1 %92 to i8
  store i8 %93, ptr %11, align 1, !tbaa !153
  %94 = load ptr, ptr %12, align 8, !tbaa !95
  %95 = getelementptr inbounds ptr, ptr %94, i64 8
  %96 = load ptr, ptr %95, align 8
  %97 = call noundef zeroext i1 %96(ptr noundef nonnull align 8 dereferenceable(136) %12, i8 noundef zeroext 2, ptr noundef @_ZN2cv8obsensorL11OB_EXT_CMD6E, i32 noundef 16)
  %98 = zext i1 %97 to i32
  %99 = load i8, ptr %11, align 1, !tbaa !153, !range !155, !noundef !156
  %100 = trunc i8 %99 to i1
  %101 = zext i1 %100 to i32
  %102 = and i32 %101, %98
  %103 = icmp ne i32 %102, 0
  %104 = zext i1 %103 to i8
  store i8 %104, ptr %11, align 1, !tbaa !153
  %105 = load ptr, ptr %12, align 8, !tbaa !95
  %106 = getelementptr inbounds ptr, ptr %105, i64 9
  %107 = load ptr, ptr %106, align 8
  %108 = call noundef zeroext i1 %107(ptr noundef nonnull align 8 dereferenceable(136) %12, i8 noundef zeroext 2, ptr noundef %9, ptr noundef %10)
  %109 = zext i1 %108 to i32
  %110 = load i8, ptr %11, align 1, !tbaa !153, !range !155, !noundef !156
  %111 = trunc i8 %110 to i1
  %112 = zext i1 %111 to i32
  %113 = and i32 %112, %109
  %114 = icmp ne i32 %113, 0
  %115 = zext i1 %114 to i8
  store i8 %115, ptr %11, align 1, !tbaa !153
  br label %309

116:                                              ; preds = %65
  %117 = getelementptr inbounds nuw %"class.cv::obsensor::IUvcStreamChannel", ptr %12, i32 0, i32 1
  %118 = getelementptr inbounds nuw %"struct.cv::obsensor::UvcDeviceInfo", ptr %117, i32 0, i32 4
  %119 = load i16, ptr %118, align 2, !tbaa !152
  %120 = zext i16 %119 to i32
  %121 = icmp eq i32 1651, %120
  br i1 %121, label %122, label %167

122:                                              ; preds = %116
  %123 = load ptr, ptr %12, align 8, !tbaa !95
  %124 = getelementptr inbounds ptr, ptr %123, i64 8
  %125 = load ptr, ptr %124, align 8
  %126 = call noundef zeroext i1 %125(ptr noundef nonnull align 8 dereferenceable(136) %12, i8 noundef zeroext 2, ptr noundef @_ZN2cv8obsensorL12OB_EXT_CMD11E, i32 noundef 16)
  %127 = zext i1 %126 to i32
  %128 = load i8, ptr %11, align 1, !tbaa !153, !range !155, !noundef !156
  %129 = trunc i8 %128 to i1
  %130 = zext i1 %129 to i32
  %131 = and i32 %130, %127
  %132 = icmp ne i32 %131, 0
  %133 = zext i1 %132 to i8
  store i8 %133, ptr %11, align 1, !tbaa !153
  %134 = load ptr, ptr %12, align 8, !tbaa !95
  %135 = getelementptr inbounds ptr, ptr %134, i64 9
  %136 = load ptr, ptr %135, align 8
  %137 = call noundef zeroext i1 %136(ptr noundef nonnull align 8 dereferenceable(136) %12, i8 noundef zeroext 2, ptr noundef %9, ptr noundef %10)
  %138 = zext i1 %137 to i32
  %139 = load i8, ptr %11, align 1, !tbaa !153, !range !155, !noundef !156
  %140 = trunc i8 %139 to i1
  %141 = zext i1 %140 to i32
  %142 = and i32 %141, %138
  %143 = icmp ne i32 %142, 0
  %144 = zext i1 %143 to i8
  store i8 %144, ptr %11, align 1, !tbaa !153
  %145 = load ptr, ptr %12, align 8, !tbaa !95
  %146 = getelementptr inbounds ptr, ptr %145, i64 8
  %147 = load ptr, ptr %146, align 8
  %148 = call noundef zeroext i1 %147(ptr noundef nonnull align 8 dereferenceable(136) %12, i8 noundef zeroext 2, ptr noundef @_ZN2cv8obsensorL11OB_EXT_CMD6E, i32 noundef 16)
  %149 = zext i1 %148 to i32
  %150 = load i8, ptr %11, align 1, !tbaa !153, !range !155, !noundef !156
  %151 = trunc i8 %150 to i1
  %152 = zext i1 %151 to i32
  %153 = and i32 %152, %149
  %154 = icmp ne i32 %153, 0
  %155 = zext i1 %154 to i8
  store i8 %155, ptr %11, align 1, !tbaa !153
  %156 = load ptr, ptr %12, align 8, !tbaa !95
  %157 = getelementptr inbounds ptr, ptr %156, i64 9
  %158 = load ptr, ptr %157, align 8
  %159 = call noundef zeroext i1 %158(ptr noundef nonnull align 8 dereferenceable(136) %12, i8 noundef zeroext 2, ptr noundef %9, ptr noundef %10)
  %160 = zext i1 %159 to i32
  %161 = load i8, ptr %11, align 1, !tbaa !153, !range !155, !noundef !156
  %162 = trunc i8 %161 to i1
  %163 = zext i1 %162 to i32
  %164 = and i32 %163, %160
  %165 = icmp ne i32 %164, 0
  %166 = zext i1 %165 to i8
  store i8 %166, ptr %11, align 1, !tbaa !153
  br label %308

167:                                              ; preds = %116
  %168 = getelementptr inbounds nuw %"class.cv::obsensor::IUvcStreamChannel", ptr %12, i32 0, i32 1
  %169 = getelementptr inbounds nuw %"struct.cv::obsensor::UvcDeviceInfo", ptr %168, i32 0, i32 4
  %170 = load i16, ptr %169, align 2, !tbaa !152
  %171 = zext i16 %170 to i32
  %172 = icmp eq i32 1649, %171
  br i1 %172, label %173, label %218

173:                                              ; preds = %167
  %174 = load ptr, ptr %12, align 8, !tbaa !95
  %175 = getelementptr inbounds ptr, ptr %174, i64 8
  %176 = load ptr, ptr %175, align 8
  %177 = call noundef zeroext i1 %176(ptr noundef nonnull align 8 dereferenceable(136) %12, i8 noundef zeroext 2, ptr noundef @_ZN2cv8obsensorL12OB_EXT_CMD11E, i32 noundef 16)
  %178 = zext i1 %177 to i32
  %179 = load i8, ptr %11, align 1, !tbaa !153, !range !155, !noundef !156
  %180 = trunc i8 %179 to i1
  %181 = zext i1 %180 to i32
  %182 = and i32 %181, %178
  %183 = icmp ne i32 %182, 0
  %184 = zext i1 %183 to i8
  store i8 %184, ptr %11, align 1, !tbaa !153
  %185 = load ptr, ptr %12, align 8, !tbaa !95
  %186 = getelementptr inbounds ptr, ptr %185, i64 9
  %187 = load ptr, ptr %186, align 8
  %188 = call noundef zeroext i1 %187(ptr noundef nonnull align 8 dereferenceable(136) %12, i8 noundef zeroext 2, ptr noundef %9, ptr noundef %10)
  %189 = zext i1 %188 to i32
  %190 = load i8, ptr %11, align 1, !tbaa !153, !range !155, !noundef !156
  %191 = trunc i8 %190 to i1
  %192 = zext i1 %191 to i32
  %193 = and i32 %192, %189
  %194 = icmp ne i32 %193, 0
  %195 = zext i1 %194 to i8
  store i8 %195, ptr %11, align 1, !tbaa !153
  %196 = load ptr, ptr %12, align 8, !tbaa !95
  %197 = getelementptr inbounds ptr, ptr %196, i64 8
  %198 = load ptr, ptr %197, align 8
  %199 = call noundef zeroext i1 %198(ptr noundef nonnull align 8 dereferenceable(136) %12, i8 noundef zeroext 2, ptr noundef @_ZN2cv8obsensorL11OB_EXT_CMD6E, i32 noundef 16)
  %200 = zext i1 %199 to i32
  %201 = load i8, ptr %11, align 1, !tbaa !153, !range !155, !noundef !156
  %202 = trunc i8 %201 to i1
  %203 = zext i1 %202 to i32
  %204 = and i32 %203, %200
  %205 = icmp ne i32 %204, 0
  %206 = zext i1 %205 to i8
  store i8 %206, ptr %11, align 1, !tbaa !153
  %207 = load ptr, ptr %12, align 8, !tbaa !95
  %208 = getelementptr inbounds ptr, ptr %207, i64 9
  %209 = load ptr, ptr %208, align 8
  %210 = call noundef zeroext i1 %209(ptr noundef nonnull align 8 dereferenceable(136) %12, i8 noundef zeroext 2, ptr noundef %9, ptr noundef %10)
  %211 = zext i1 %210 to i32
  %212 = load i8, ptr %11, align 1, !tbaa !153, !range !155, !noundef !156
  %213 = trunc i8 %212 to i1
  %214 = zext i1 %213 to i32
  %215 = and i32 %214, %211
  %216 = icmp ne i32 %215, 0
  %217 = zext i1 %216 to i8
  store i8 %217, ptr %11, align 1, !tbaa !153
  br label %307

218:                                              ; preds = %167
  %219 = load ptr, ptr %12, align 8, !tbaa !95
  %220 = getelementptr inbounds ptr, ptr %219, i64 8
  %221 = load ptr, ptr %220, align 8
  %222 = call noundef zeroext i1 %221(ptr noundef nonnull align 8 dereferenceable(136) %12, i8 noundef zeroext 2, ptr noundef @_ZN2cv8obsensorL11OB_EXT_CMD0E, i32 noundef 16)
  %223 = zext i1 %222 to i32
  %224 = load i8, ptr %11, align 1, !tbaa !153, !range !155, !noundef !156
  %225 = trunc i8 %224 to i1
  %226 = zext i1 %225 to i32
  %227 = and i32 %226, %223
  %228 = icmp ne i32 %227, 0
  %229 = zext i1 %228 to i8
  store i8 %229, ptr %11, align 1, !tbaa !153
  %230 = load ptr, ptr %12, align 8, !tbaa !95
  %231 = getelementptr inbounds ptr, ptr %230, i64 9
  %232 = load ptr, ptr %231, align 8
  %233 = call noundef zeroext i1 %232(ptr noundef nonnull align 8 dereferenceable(136) %12, i8 noundef zeroext 2, ptr noundef %9, ptr noundef %10)
  %234 = zext i1 %233 to i32
  %235 = load i8, ptr %11, align 1, !tbaa !153, !range !155, !noundef !156
  %236 = trunc i8 %235 to i1
  %237 = zext i1 %236 to i32
  %238 = and i32 %237, %234
  %239 = icmp ne i32 %238, 0
  %240 = zext i1 %239 to i8
  store i8 %240, ptr %11, align 1, !tbaa !153
  %241 = load ptr, ptr %12, align 8, !tbaa !95
  %242 = getelementptr inbounds ptr, ptr %241, i64 8
  %243 = load ptr, ptr %242, align 8
  %244 = call noundef zeroext i1 %243(ptr noundef nonnull align 8 dereferenceable(136) %12, i8 noundef zeroext 2, ptr noundef @_ZN2cv8obsensorL11OB_EXT_CMD1E, i32 noundef 16)
  %245 = zext i1 %244 to i32
  %246 = load i8, ptr %11, align 1, !tbaa !153, !range !155, !noundef !156
  %247 = trunc i8 %246 to i1
  %248 = zext i1 %247 to i32
  %249 = and i32 %248, %245
  %250 = icmp ne i32 %249, 0
  %251 = zext i1 %250 to i8
  store i8 %251, ptr %11, align 1, !tbaa !153
  %252 = load ptr, ptr %12, align 8, !tbaa !95
  %253 = getelementptr inbounds ptr, ptr %252, i64 9
  %254 = load ptr, ptr %253, align 8
  %255 = call noundef zeroext i1 %254(ptr noundef nonnull align 8 dereferenceable(136) %12, i8 noundef zeroext 2, ptr noundef %9, ptr noundef %10)
  %256 = zext i1 %255 to i32
  %257 = load i8, ptr %11, align 1, !tbaa !153, !range !155, !noundef !156
  %258 = trunc i8 %257 to i1
  %259 = zext i1 %258 to i32
  %260 = and i32 %259, %256
  %261 = icmp ne i32 %260, 0
  %262 = zext i1 %261 to i8
  store i8 %262, ptr %11, align 1, !tbaa !153
  %263 = load ptr, ptr %12, align 8, !tbaa !95
  %264 = getelementptr inbounds ptr, ptr %263, i64 8
  %265 = load ptr, ptr %264, align 8
  %266 = call noundef zeroext i1 %265(ptr noundef nonnull align 8 dereferenceable(136) %12, i8 noundef zeroext 2, ptr noundef @_ZN2cv8obsensorL11OB_EXT_CMD2E, i32 noundef 16)
  %267 = zext i1 %266 to i32
  %268 = load i8, ptr %11, align 1, !tbaa !153, !range !155, !noundef !156
  %269 = trunc i8 %268 to i1
  %270 = zext i1 %269 to i32
  %271 = and i32 %270, %267
  %272 = icmp ne i32 %271, 0
  %273 = zext i1 %272 to i8
  store i8 %273, ptr %11, align 1, !tbaa !153
  %274 = load ptr, ptr %12, align 8, !tbaa !95
  %275 = getelementptr inbounds ptr, ptr %274, i64 9
  %276 = load ptr, ptr %275, align 8
  %277 = call noundef zeroext i1 %276(ptr noundef nonnull align 8 dereferenceable(136) %12, i8 noundef zeroext 2, ptr noundef %9, ptr noundef %10)
  %278 = zext i1 %277 to i32
  %279 = load i8, ptr %11, align 1, !tbaa !153, !range !155, !noundef !156
  %280 = trunc i8 %279 to i1
  %281 = zext i1 %280 to i32
  %282 = and i32 %281, %278
  %283 = icmp ne i32 %282, 0
  %284 = zext i1 %283 to i8
  store i8 %284, ptr %11, align 1, !tbaa !153
  %285 = load ptr, ptr %12, align 8, !tbaa !95
  %286 = getelementptr inbounds ptr, ptr %285, i64 8
  %287 = load ptr, ptr %286, align 8
  %288 = call noundef zeroext i1 %287(ptr noundef nonnull align 8 dereferenceable(136) %12, i8 noundef zeroext 2, ptr noundef @_ZN2cv8obsensorL11OB_EXT_CMD3E, i32 noundef 16)
  %289 = zext i1 %288 to i32
  %290 = load i8, ptr %11, align 1, !tbaa !153, !range !155, !noundef !156
  %291 = trunc i8 %290 to i1
  %292 = zext i1 %291 to i32
  %293 = and i32 %292, %289
  %294 = icmp ne i32 %293, 0
  %295 = zext i1 %294 to i8
  store i8 %295, ptr %11, align 1, !tbaa !153
  %296 = load ptr, ptr %12, align 8, !tbaa !95
  %297 = getelementptr inbounds ptr, ptr %296, i64 9
  %298 = load ptr, ptr %297, align 8
  %299 = call noundef zeroext i1 %298(ptr noundef nonnull align 8 dereferenceable(136) %12, i8 noundef zeroext 2, ptr noundef %9, ptr noundef %10)
  %300 = zext i1 %299 to i32
  %301 = load i8, ptr %11, align 1, !tbaa !153, !range !155, !noundef !156
  %302 = trunc i8 %301 to i1
  %303 = zext i1 %302 to i32
  %304 = and i32 %303, %300
  %305 = icmp ne i32 %304, 0
  %306 = zext i1 %305 to i8
  store i8 %306, ptr %11, align 1, !tbaa !153
  br label %307

307:                                              ; preds = %218, %173
  br label %308

308:                                              ; preds = %307, %122
  br label %309

309:                                              ; preds = %308, %71
  br label %310

310:                                              ; preds = %309, %20
  br label %312

311:                                              ; preds = %4
  store i8 0, ptr %11, align 1, !tbaa !153
  br label %312

312:                                              ; preds = %311, %310
  %313 = load i8, ptr %11, align 1, !tbaa !153, !range !155, !noundef !156
  %314 = trunc i8 %313 to i1
  call void @llvm.lifetime.end.p0(i64 1, ptr %11) #3
  call void @llvm.lifetime.end.p0(i64 4, ptr %10) #3
  call void @llvm.lifetime.end.p0(i64 8, ptr %9) #3
  ret i1 %314
}