; Function Attrs: mustprogress uwtable
define hidden noundef zeroext i1 @_ZN2cv8obsensor17IUvcStreamChannel11setPropertyEiPKhj(ptr noundef nonnull align 8 dereferenceable(136) %0, i32 noundef %1, ptr readnone captures(none) %2, i32 %3) unnamed_addr #5 align 2 {
  %5 = alloca ptr, align 8
  %6 = alloca i32, align 4
  call void @llvm.lifetime.start.p0(i64 8, ptr nonnull %5) #28
  call void @llvm.lifetime.start.p0(i64 4, ptr nonnull %6) #28
  %cond = icmp eq i32 %1, 42
  br i1 %cond, label %7, label %58

7:                                                ; preds = %4
  %8 = getelementptr inbounds nuw i8, ptr %0, i64 106
  %9 = load i16, ptr %8, align 2, !tbaa !116
  %10 = load ptr, ptr %0, align 8, !tbaa !61
  %11 = getelementptr inbounds nuw i8, ptr %10, i64 64
  %12 = load ptr, ptr %11, align 8
  switch i16 %9, label %21 [
    i16 1648, label %13
    i16 1632, label %15
    i16 1651, label %17
    i16 1649, label %19
  ]

13:                                               ; preds = %7
  %14 = tail call noundef zeroext i1 %12(ptr noundef nonnull align 8 dereferenceable(136) %0, i8 noundef zeroext 2, ptr noundef nonnull @_ZN2cv8obsensorL11OB_EXT_CMD8E, i32 noundef 16)
  br label %.sink.split

15:                                               ; preds = %7
  %16 = tail call noundef zeroext i1 %12(ptr noundef nonnull align 8 dereferenceable(136) %0, i8 noundef zeroext 2, ptr noundef nonnull @_ZN2cv8obsensorL12OB_EXT_CMD12E, i32 noundef 16)
  br label %.sink.split

17:                                               ; preds = %7
  %18 = tail call noundef zeroext i1 %12(ptr noundef nonnull align 8 dereferenceable(136) %0, i8 noundef zeroext 2, ptr noundef nonnull @_ZN2cv8obsensorL12OB_EXT_CMD11E, i32 noundef 16)
  br label %.sink.split

19:                                               ; preds = %7
  %20 = tail call noundef zeroext i1 %12(ptr noundef nonnull align 8 dereferenceable(136) %0, i8 noundef zeroext 2, ptr noundef nonnull @_ZN2cv8obsensorL12OB_EXT_CMD11E, i32 noundef 16)
  br label %.sink.split

21:                                               ; preds = %7
  %22 = tail call noundef zeroext i1 %12(ptr noundef nonnull align 8 dereferenceable(136) %0, i8 noundef zeroext 2, ptr noundef nonnull @_ZN2cv8obsensorL11OB_EXT_CMD0E, i32 noundef 16)
  %23 = load ptr, ptr %0, align 8, !tbaa !61
  %24 = getelementptr inbounds nuw i8, ptr %23, i64 72
  %25 = load ptr, ptr %24, align 8
  %26 = call noundef zeroext i1 %25(ptr noundef nonnull align 8 dereferenceable(136) %0, i8 noundef zeroext 2, ptr noundef nonnull %5, ptr noundef nonnull %6)
  %27 = and i1 %22, %26
  %28 = load ptr, ptr %0, align 8, !tbaa !61
  %29 = getelementptr inbounds nuw i8, ptr %28, i64 64
  %30 = load ptr, ptr %29, align 8
  %31 = call noundef zeroext i1 %30(ptr noundef nonnull align 8 dereferenceable(136) %0, i8 noundef zeroext 2, ptr noundef nonnull @_ZN2cv8obsensorL11OB_EXT_CMD1E, i32 noundef 16)
  %32 = and i1 %27, %31
  %33 = load ptr, ptr %0, align 8, !tbaa !61
  %34 = getelementptr inbounds nuw i8, ptr %33, i64 72
  %35 = load ptr, ptr %34, align 8
  %36 = call noundef zeroext i1 %35(ptr noundef nonnull align 8 dereferenceable(136) %0, i8 noundef zeroext 2, ptr noundef nonnull %5, ptr noundef nonnull %6)
  %37 = and i1 %32, %36
  %38 = load ptr, ptr %0, align 8, !tbaa !61
  %39 = getelementptr inbounds nuw i8, ptr %38, i64 64
  %40 = load ptr, ptr %39, align 8
  %41 = call noundef zeroext i1 %40(ptr noundef nonnull align 8 dereferenceable(136) %0, i8 noundef zeroext 2, ptr noundef nonnull @_ZN2cv8obsensorL11OB_EXT_CMD2E, i32 noundef 16)
  %42 = and i1 %37, %41
  br label %.sink.split

.sink.split:                                      ; preds = %15, %19, %21, %17, %13
  %.sink = phi i1 [ %14, %13 ], [ %18, %17 ], [ %42, %21 ], [ %20, %19 ], [ %16, %15 ]
  %_ZN2cv8obsensorL11OB_EXT_CMD6E.sink = phi ptr [ @_ZN2cv8obsensorL11OB_EXT_CMD6E, %13 ], [ @_ZN2cv8obsensorL11OB_EXT_CMD6E, %17 ], [ @_ZN2cv8obsensorL11OB_EXT_CMD3E, %21 ], [ @_ZN2cv8obsensorL11OB_EXT_CMD6E, %19 ], [ @_ZN2cv8obsensorL11OB_EXT_CMD6E, %15 ]
  %43 = load ptr, ptr %0, align 8, !tbaa !61
  %44 = getelementptr inbounds nuw i8, ptr %43, i64 72
  %45 = load ptr, ptr %44, align 8
  %46 = call noundef zeroext i1 %45(ptr noundef nonnull align 8 dereferenceable(136) %0, i8 noundef zeroext 2, ptr noundef nonnull %5, ptr noundef nonnull %6)
  %47 = and i1 %.sink, %46
  %48 = load ptr, ptr %0, align 8, !tbaa !61
  %49 = getelementptr inbounds nuw i8, ptr %48, i64 64
  %50 = load ptr, ptr %49, align 8
  %51 = call noundef zeroext i1 %50(ptr noundef nonnull align 8 dereferenceable(136) %0, i8 noundef zeroext 2, ptr noundef nonnull %_ZN2cv8obsensorL11OB_EXT_CMD6E.sink, i32 noundef 16)
  %52 = and i1 %47, %51
  %53 = load ptr, ptr %0, align 8, !tbaa !61
  %54 = getelementptr inbounds nuw i8, ptr %53, i64 72
  %55 = load ptr, ptr %54, align 8
  %56 = call noundef zeroext i1 %55(ptr noundef nonnull align 8 dereferenceable(136) %0, i8 noundef zeroext 2, ptr noundef nonnull %5, ptr noundef nonnull %6)
  %57 = and i1 %52, %56
  br label %58

58:                                               ; preds = %.sink.split, %4
  %.0.shrunk = phi i1 [ false, %4 ], [ %57, %.sink.split ]
  call void @llvm.lifetime.end.p0(i64 4, ptr nonnull %6) #28
  call void @llvm.lifetime.end.p0(i64 8, ptr nonnull %5) #28
  ret i1 %.0.shrunk
}